; Function Attrs: mustprogress uwtable
define void @_ZN7Imf_3_423offsetInLineBufferTableERKSt6vectorImSaImEEiRS2_(ptr noundef nonnull readonly align 8 captures(none) dereferenceable(24) %0, i32 noundef %1, ptr noundef nonnull align 8 dereferenceable(24) %2) local_unnamed_addr #5 personality ptr @__gxx_personality_v0 {
  %4 = getelementptr inbounds nuw i8, ptr %0, i64 8
  %5 = load ptr, ptr %4, align 8, !tbaa !10
  %6 = load ptr, ptr %0, align 8, !tbaa !14
  %7 = ptrtoint ptr %5 to i64
  %8 = ptrtoint ptr %6 to i64
  %9 = sub i64 %7, %8
  %10 = ashr exact i64 %9, 3
  %11 = trunc i64 %10 to i32
  %12 = add i32 %11, -1
  %13 = getelementptr inbounds nuw i8, ptr %2, i64 8
  %14 = load ptr, ptr %13, align 8, !tbaa !10
  %15 = load ptr, ptr %2, align 8, !tbaa !14
  %16 = ptrtoint ptr %14 to i64
  %17 = ptrtoint ptr %15 to i64
  %18 = sub i64 %16, %17
  %19 = ashr exact i64 %18, 3
  %20 = icmp ugt i64 %10, %19
  br i1 %20, label %21, label %23

21:                                               ; preds = %3
  %22 = sub nuw nsw i64 %10, %19
  tail call void @_ZNSt6vectorImSaImEE17_M_default_appendEm(ptr noundef nonnull align 8 dereferenceable(24) %2, i64 noundef %22)
  br label %_ZNSt6vectorImSaImEE6resizeEm.exit.i

23:                                               ; preds = %3
  %24 = icmp ult i64 %10, %19
  br i1 %24, label %25, label %_ZNSt6vectorImSaImEE6resizeEm.exit.i

25:                                               ; preds = %23
  %26 = getelementptr inbounds nuw i8, ptr %15, i64 %9
  %.not.i.i.i = icmp eq ptr %14, %26
  br i1 %.not.i.i.i, label %_ZNSt6vectorImSaImEE6resizeEm.exit.i, label %27

27:                                               ; preds = %25
  store ptr %26, ptr %13, align 8, !tbaa !10
  br label %_ZNSt6vectorImSaImEE6resizeEm.exit.i

_ZNSt6vectorImSaImEE6resizeEm.exit.i:             ; preds = %27, %25, %23, %21
  %.not14.i = icmp slt i32 %12, 0
  br i1 %.not14.i, label %_ZN7Imf_3_423offsetInLineBufferTableERKSt6vectorImSaImEEiiiRS2_.exit, label %.lr.ph.i

.lr.ph.i:                                         ; preds = %_ZNSt6vectorImSaImEE6resizeEm.exit.i
  %28 = load ptr, ptr %2, align 8, !tbaa !14
  %29 = load ptr, ptr %0, align 8, !tbaa !14
  %zext = and i64 %10, 4294967295
  br label %30

30:                                               ; preds = %30, %.lr.ph.i
  %indvars.iv.i = phi i64 [ 0, %.lr.ph.i ], [ %indvars.iv.next.i, %30 ]
  %.01315.i = phi i64 [ 0, %.lr.ph.i ], [ %37, %30 ]
  %31 = trunc nsw i64 %indvars.iv.i to i32
  %32 = srem i32 %31, %1
  %33 = icmp eq i32 %32, 0
  %spec.select.i = select i1 %33, i64 0, i64 %.01315.i
  %34 = getelementptr inbounds nuw i64, ptr %28, i64 %indvars.iv.i
  store i64 %spec.select.i, ptr %34, align 8, !tbaa !23
  %35 = getelementptr inbounds nuw i64, ptr %29, i64 %indvars.iv.i
  %36 = load i64, ptr %35, align 8, !tbaa !23
  %37 = add i64 %36, %spec.select.i
  %indvars.iv.next.i = add nuw nsw i64 %indvars.iv.i, 1
  %38 = icmp eq i64 %indvars.iv.next.i, %zext
  br i1 %38, label %_ZN7Imf_3_423offsetInLineBufferTableERKSt6vectorImSaImEEiiiRS2_.exit, label %30, !llvm.loop !34

_ZN7Imf_3_423offsetInLineBufferTableERKSt6vectorImSaImEEiiiRS2_.exit: ; preds = %30, %_ZNSt6vectorImSaImEE6resizeEm.exit.i
  ret void
}